; Function Attrs: mustprogress uwtable
define hidden void @_ZN4cvc58internal6theory4bags9BagsUtils22evaluateTableAggregateEPNS1_8RewriterENS0_12NodeTemplateILb0EEE(ptr dead_on_unwind noalias writable sret(%"class.cvc5::internal::NodeTemplate") align 8 %0, ptr noundef readnone captures(none) %1, ptr noundef readonly captures(none) %2) local_unnamed_addr #3 align 2 personality ptr @__gxx_personality_v0 {
  %4 = alloca %"class.cvc5::internal::NodeTemplate.80", align 8
  %5 = alloca %"class.cvc5::internal::NodeTemplate.80", align 8
  %6 = alloca %"class.cvc5::internal::NodeTemplate", align 8
  call void @llvm.lifetime.start.p0(i64 8, ptr nonnull %4) #23
  tail call void @llvm.experimental.noalias.scope.decl(metadata !355)
  %7 = load ptr, ptr %2, align 8, !tbaa !24, !noalias !355
  %8 = getelementptr inbounds nuw i8, ptr %7, i64 8
  %9 = load i64, ptr %8, align 8, !noalias !355
  %10 = trunc i64 %9 to i32
  %11 = and i32 %10, 1023
  %12 = icmp eq i32 %11, 1023
  %13 = select i1 %12, i32 -1, i32 %11
  %14 = tail call noundef i32 @_ZN4cvc58internal4kind10metaKindOfENS1_6Kind_tE(i32 noundef %13), !noalias !355
  %15 = icmp eq i32 %14, 2
  %spec.select.i.i = select i1 %15, i64 2, i64 1
  %16 = getelementptr inbounds nuw i8, ptr %7, i64 24
  %17 = getelementptr inbounds nuw [0 x ptr], ptr %16, i64 0, i64 %spec.select.i.i
  %18 = load ptr, ptr %17, align 8, !tbaa !31, !noalias !355
  store ptr %18, ptr %4, align 8, !tbaa !24, !alias.scope !355
  %19 = invoke noundef zeroext i1 @_ZNK4cvc58internal12NodeTemplateILb0EE7isConstEv(ptr noundef nonnull align 8 dereferenceable(8) %4)
          to label %20 unwind label %52

20:                                               ; preds = %3
  br i1 %19, label %21, label %.critedge.thread

.critedge.thread:                                 ; preds = %20
  call void @llvm.lifetime.end.p0(i64 8, ptr nonnull %4) #23
  br label %36

21:                                               ; preds = %20
  call void @llvm.lifetime.start.p0(i64 8, ptr nonnull %5) #23
  call void @llvm.experimental.noalias.scope.decl(metadata !358)
  %22 = load ptr, ptr %2, align 8, !tbaa !24, !noalias !358
  %23 = getelementptr inbounds nuw i8, ptr %22, i64 8
  %24 = load i64, ptr %23, align 8, !noalias !358
  %25 = trunc i64 %24 to i32
  %26 = and i32 %25, 1023
  %27 = icmp eq i32 %26, 1023
  %28 = select i1 %27, i32 -1, i32 %26
  %29 = invoke noundef i32 @_ZN4cvc58internal4kind10metaKindOfENS1_6Kind_tE(i32 noundef %28)
          to label %30 unwind label %54

30:                                               ; preds = %21
  %31 = icmp eq i32 %29, 2
  %spec.select.i.i15 = select i1 %31, i64 3, i64 2
  %32 = getelementptr inbounds nuw i8, ptr %22, i64 24
  %33 = getelementptr inbounds nuw [0 x ptr], ptr %32, i64 0, i64 %spec.select.i.i15
  %34 = load ptr, ptr %33, align 8, !tbaa !31, !noalias !358
  store ptr %34, ptr %5, align 8, !tbaa !24, !alias.scope !358
  %35 = invoke noundef zeroext i1 @_ZNK4cvc58internal12NodeTemplateILb0EE7isConstEv(ptr noundef nonnull align 8 dereferenceable(8) %5)
          to label %.critedge unwind label %56

.critedge:                                        ; preds = %30
  call void @llvm.lifetime.end.p0(i64 8, ptr nonnull %5) #23
  call void @llvm.lifetime.end.p0(i64 8, ptr nonnull %4) #23
  br i1 %35, label %60, label %36

36:                                               ; preds = %.critedge.thread, %.critedge
  %37 = load ptr, ptr %2, align 8, !tbaa !24
  store ptr %37, ptr %0, align 8, !tbaa !8
  %38 = load i64, ptr %37, align 8
  %39 = lshr i64 %38, 40
  %40 = trunc nuw nsw i64 %39 to i32
  %41 = and i32 %40, 1048575
  %42 = icmp samesign ult i32 %41, 1048574
  br i1 %42, label %43, label %48, !prof !11

43:                                               ; preds = %36
  %44 = add i64 %38, 1099511627776
  %45 = and i64 %44, 1152920405095219200
  %46 = and i64 %38, -1152920405095219201
  %47 = or disjoint i64 %45, %46
  store i64 %47, ptr %37, align 8
  br label %_ZN4cvc58internal12NodeTemplateILb1EEC2ERKNS1_ILb0EEE.exit

48:                                               ; preds = %36
  %49 = icmp eq i32 %41, 1048574
  br i1 %49, label %50, label %_ZN4cvc58internal12NodeTemplateILb1EEC2ERKNS1_ILb0EEE.exit, !prof !12

50:                                               ; preds = %48
  %51 = or i64 %38, 1152920405095219200
  store i64 %51, ptr %37, align 8
  call void @_ZN4cvc58internal4expr9NodeValue20markRefCountMaxedOutEv(ptr noundef nonnull align 8 dereferenceable(24) %37)
  br label %_ZN4cvc58internal12NodeTemplateILb1EEC2ERKNS1_ILb0EEE.exit

52:                                               ; preds = %3
  %53 = landingpad { ptr, i32 }
          cleanup
  br label %59

54:                                               ; preds = %21
  %55 = landingpad { ptr, i32 }
          cleanup
  br label %58

56:                                               ; preds = %30
  %57 = landingpad { ptr, i32 }
          cleanup
  br label %58

58:                                               ; preds = %54, %56
  %.pn = phi { ptr, i32 } [ %57, %56 ], [ %55, %54 ]
  call void @llvm.lifetime.end.p0(i64 8, ptr nonnull %5) #23
  br label %59

59:                                               ; preds = %58, %52
  %.pn.pn = phi { ptr, i32 } [ %.pn, %58 ], [ %53, %52 ]
  call void @llvm.lifetime.end.p0(i64 8, ptr nonnull %4) #23
  br label %92

60:                                               ; preds = %.critedge
  %61 = load ptr, ptr %2, align 8, !tbaa !24
  store ptr %61, ptr %6, align 8, !tbaa !8
  %62 = load i64, ptr %61, align 8
  %63 = lshr i64 %62, 40
  %64 = trunc nuw nsw i64 %63 to i32
  %65 = and i32 %64, 1048575
  %66 = icmp samesign ult i32 %65, 1048574
  br i1 %66, label %67, label %72, !prof !11

67:                                               ; preds = %60
  %68 = add i64 %62, 1099511627776
  %69 = and i64 %68, 1152920405095219200
  %70 = and i64 %62, -1152920405095219201
  %71 = or disjoint i64 %69, %70
  store i64 %71, ptr %61, align 8
  br label %_ZN4cvc58internal12NodeTemplateILb1EEC2ERKNS1_ILb0EEE.exit16

72:                                               ; preds = %60
  %73 = icmp eq i32 %65, 1048574
  br i1 %73, label %74, label %_ZN4cvc58internal12NodeTemplateILb1EEC2ERKNS1_ILb0EEE.exit16, !prof !12

74:                                               ; preds = %72
  %75 = or i64 %62, 1152920405095219200
  store i64 %75, ptr %61, align 8
  call void @_ZN4cvc58internal4expr9NodeValue20markRefCountMaxedOutEv(ptr noundef nonnull align 8 dereferenceable(24) %61)
  br label %_ZN4cvc58internal12NodeTemplateILb1EEC2ERKNS1_ILb0EEE.exit16

_ZN4cvc58internal12NodeTemplateILb1EEC2ERKNS1_ILb0EEE.exit16: ; preds = %67, %72, %74
  invoke void @_ZN4cvc58internal6theory4bags12BagReduction23reduceAggregateOperatorENS0_12NodeTemplateILb1EEE(ptr dead_on_unwind writable sret(%"class.cvc5::internal::NodeTemplate") align 8 %0, ptr noundef nonnull %6)
          to label %76 unwind label %90

76:                                               ; preds = %_ZN4cvc58internal12NodeTemplateILb1EEC2ERKNS1_ILb0EEE.exit16
  %77 = load ptr, ptr %6, align 8, !tbaa !8
  %78 = load i64, ptr %77, align 8
  %79 = and i64 %78, 1152920405095219200
  %.not.i.i = icmp eq i64 %79, 1152920405095219200
  br i1 %.not.i.i, label %_ZN4cvc58internal12NodeTemplateILb1EEC2ERKNS1_ILb0EEE.exit, label %80, !prof !12

80:                                               ; preds = %76
  %81 = add i64 %78, 1152920405095219200
  %82 = and i64 %81, 1152920405095219200
  %83 = and i64 %78, -1152920405095219201
  %84 = or disjoint i64 %82, %83
  store i64 %84, ptr %77, align 8
  %85 = icmp eq i64 %82, 0
  br i1 %85, label %86, label %_ZN4cvc58internal12NodeTemplateILb1EEC2ERKNS1_ILb0EEE.exit, !prof !12

86:                                               ; preds = %80
  invoke void @_ZN4cvc58internal4expr9NodeValue15markForDeletionEv(ptr noundef nonnull align 8 dereferenceable(24) %77)
          to label %_ZN4cvc58internal12NodeTemplateILb1EEC2ERKNS1_ILb0EEE.exit unwind label %87

87:                                               ; preds = %86
  %88 = landingpad { ptr, i32 }
          catch ptr null
  %89 = extractvalue { ptr, i32 } %88, 0
  call void @__clang_call_terminate(ptr %89) #24
  unreachable

90:                                               ; preds = %_ZN4cvc58internal12NodeTemplateILb1EEC2ERKNS1_ILb0EEE.exit16
  %91 = landingpad { ptr, i32 }
          cleanup
  call void @_ZN4cvc58internal12NodeTemplateILb1EED2Ev(ptr noundef nonnull align 8 dereferenceable(8) %6) #23
  br label %92

_ZN4cvc58internal12NodeTemplateILb1EEC2ERKNS1_ILb0EEE.exit: ; preds = %86, %80, %76, %50, %48, %43
  ret void

92:                                               ; preds = %90, %59
  %.pn13 = phi { ptr, i32 } [ %91, %90 ], [ %.pn.pn, %59 ]
  resume { ptr, i32 } %.pn13
}